target datalayout = "e-m:e-p270:32:32-p271:32:32-p272:64:64-i64:64-i128:128-f80:128-n8:16:32:64-S128"
target triple = "x86_64-pc-linux-gnu"

%struct.JNINativeInterface_ = type { ptr, ptr, ptr, ptr, ptr, ptr, ptr, ptr, ptr, ptr, ptr, ptr, ptr, ptr, ptr, ptr, ptr, ptr, ptr, ptr, ptr, ptr, ptr, ptr, ptr, ptr, ptr, ptr, ptr, ptr, ptr, ptr, ptr, ptr, ptr, ptr, ptr, ptr, ptr, ptr, ptr, ptr, ptr, ptr, ptr, ptr, ptr, ptr, ptr, ptr, ptr, ptr, ptr, ptr, ptr, ptr, ptr, ptr, ptr, ptr, ptr, ptr, ptr, ptr, ptr, ptr, ptr, ptr, ptr, ptr, ptr, ptr, ptr, ptr, ptr, ptr, ptr, ptr, ptr, ptr, ptr, ptr, ptr, ptr, ptr, ptr, ptr, ptr, ptr, ptr, ptr, ptr, ptr, ptr, ptr, ptr, ptr, ptr, ptr, ptr, ptr, ptr, ptr, ptr, ptr, ptr, ptr, ptr, ptr, ptr, ptr, ptr, ptr, ptr, ptr, ptr, ptr, ptr, ptr, ptr, ptr, ptr, ptr, ptr, ptr, ptr, ptr, ptr, ptr, ptr, ptr, ptr, ptr, ptr, ptr, ptr, ptr, ptr, ptr, ptr, ptr, ptr, ptr, ptr, ptr, ptr, ptr, ptr, ptr, ptr, ptr, ptr, ptr, ptr, ptr, ptr, ptr, ptr, ptr, ptr, ptr, ptr, ptr, ptr, ptr, ptr, ptr, ptr, ptr, ptr, ptr, ptr, ptr, ptr, ptr, ptr, ptr, ptr, ptr, ptr, ptr, ptr, ptr, ptr, ptr, ptr, ptr, ptr, ptr, ptr, ptr, ptr, ptr, ptr, ptr, ptr, ptr, ptr, ptr, ptr, ptr, ptr, ptr, ptr, ptr, ptr, ptr, ptr, ptr, ptr, ptr, ptr, ptr, ptr, ptr, ptr, ptr, ptr, ptr, ptr, ptr, ptr, ptr, ptr, ptr, ptr, ptr, ptr, ptr, ptr, ptr, ptr, ptr, ptr, ptr }
%struct.group = type { ptr, ptr, i32, ptr }

@.str.45 = private unnamed_addr constant [12 x i8] c"native heap\00", align 1
@.str.46 = private unnamed_addr constant [25 x i8] c"sun/nio/fs/UnixException\00", align 1
@.str.47 = private unnamed_addr constant [5 x i8] c"(I)V\00", align 1

; Function Attrs: nounwind uwtable
define internal void @throwUnixException(ptr noundef %0, i32 noundef %1) #0 {
  %3 = alloca ptr, align 8
  %4 = alloca i32, align 4
  %5 = alloca ptr, align 8
  store ptr %0, ptr %3, align 8
  store i32 %1, ptr %4, align 4
  %6 = load ptr, ptr %3, align 8
  %7 = load i32, ptr %4, align 4
  %8 = call ptr (ptr, ptr, ptr, ...) @JNU_NewObjectByName(ptr noundef %6, ptr noundef @.str.46, ptr noundef @.str.47, i32 noundef %7)
  store ptr %8, ptr %5, align 8
  %9 = load ptr, ptr %5, align 8
  %10 = icmp ne ptr %9, null
  br i1 %10, label %11, label %19

11:                                               ; preds = %2
  %12 = load ptr, ptr %3, align 8
  %13 = load ptr, ptr %12, align 8
  %14 = getelementptr inbounds %struct.JNINativeInterface_, ptr %13, i32 0, i32 13
  %15 = load ptr, ptr %14, align 8
  %16 = load ptr, ptr %3, align 8
  %17 = load ptr, ptr %5, align 8
  %18 = call i32 %15(ptr noundef %16, ptr noundef %17)
  br label %19

19:                                               ; preds = %11, %2
  ret void
}

; Function Attrs: nounwind uwtable
define i32 @Java_sun_nio_fs_UnixNativeDispatcher_getgrnam0(ptr noundef %0, ptr noundef %1, i64 noundef %2) #0 {
  %4 = alloca i32, align 4
  %5 = alloca ptr, align 8
  %6 = alloca ptr, align 8
  %7 = alloca i64, align 8
  %8 = alloca i32, align 4
  %9 = alloca i32, align 4
  %10 = alloca i32, align 4
  %11 = alloca %struct.group, align 8
  %12 = alloca ptr, align 8
  %13 = alloca i32, align 4
  %14 = alloca ptr, align 8
  %15 = alloca ptr, align 8
  store ptr %0, ptr %5, align 8
  store ptr %1, ptr %6, align 8
  store i64 %2, ptr %7, align 8
  store i32 -1, ptr %8, align 4
  %16 = call i64 @sysconf(i32 noundef 69) #6
  %17 = trunc i64 %16 to i32
  store i32 %17, ptr %9, align 4
  %18 = load i32, ptr %9, align 4
  %19 = icmp eq i32 %18, -1
  br i1 %19, label %20, label %21

20:                                               ; preds = %3
  store i32 1024, ptr %9, align 4
  br label %21

21:                                               ; preds = %20, %3
  br label %22

22:                                               ; preds = %108, %21
  store ptr null, ptr %12, align 8
  store i32 0, ptr %13, align 4
  %23 = load i64, ptr %7, align 8
  %24 = inttoptr i64 %23 to ptr
  store ptr %24, ptr %15, align 8
  %25 = load i32, ptr %9, align 4
  %26 = sext i32 %25 to i64
  %27 = call noalias ptr @malloc(i64 noundef %26) #9
  store ptr %27, ptr %14, align 8
  %28 = load ptr, ptr %14, align 8
  %29 = icmp eq ptr %28, null
  br i1 %29, label %30, label %32

30:                                               ; preds = %22
  %31 = load ptr, ptr %5, align 8
  call void @JNU_ThrowOutOfMemoryError(ptr noundef %31, ptr noundef @.str.45)
  store i32 -1, ptr %4, align 4
  br label %113

32:                                               ; preds = %22
  %33 = call ptr @__errno_location() #7
  store i32 0, ptr %33, align 4
  br label %34

34:                                               ; preds = %32
  br label %35

35:                                               ; preds = %48, %34
  %36 = load ptr, ptr %15, align 8
  %37 = load ptr, ptr %14, align 8
  %38 = load i32, ptr %9, align 4
  %39 = sext i32 %38 to i64
  %40 = call i32 @getgrnam_r(ptr noundef %36, ptr noundef %11, ptr noundef %37, i64 noundef %39, ptr noundef %12)
  store i32 %40, ptr %13, align 4
  br label %41

41:                                               ; preds = %35
  %42 = load i32, ptr %13, align 4
  %43 = icmp eq i32 %42, -1
  br i1 %43, label %44, label %48

44:                                               ; preds = %41
  %45 = call ptr @__errno_location() #7
  %46 = load i32, ptr %45, align 4
  %47 = icmp eq i32 %46, 4
  br label %48

48:                                               ; preds = %44, %41
  %49 = phi i1 [ false, %41 ], [ %47, %44 ]
  br i1 %49, label %35, label %50, !llvm.loop !37

50:                                               ; preds = %48
  br label %51

51:                                               ; preds = %50
  store i32 0, ptr %10, align 4
  %52 = load i32, ptr %13, align 4
  %53 = icmp ne i32 %52, 0
  br i1 %53, label %69, label %54

54:                                               ; preds = %51
  %55 = load ptr, ptr %12, align 8
  %56 = icmp eq ptr %55, null
  br i1 %56, label %69, label %57

57:                                               ; preds = %54
  %58 = load ptr, ptr %12, align 8
  %59 = getelementptr inbounds %struct.group, ptr %58, i32 0, i32 0
  %60 = load ptr, ptr %59, align 8
  %61 = icmp eq ptr %60, null
  br i1 %61, label %69, label %62

62:                                               ; preds = %57
  %63 = load ptr, ptr %12, align 8
  %64 = getelementptr inbounds %struct.group, ptr %63, i32 0, i32 0
  %65 = load ptr, ptr %64, align 8
  %66 = load i8, ptr %65, align 1
  %67 = sext i8 %66 to i32
  %68 = icmp eq i32 %67, 0
  br i1 %68, label %69, label %102

69:                                               ; preds = %62, %57, %54, %51
  %70 = call ptr @__errno_location() #7
  %71 = load i32, ptr %70, align 4
  %72 = icmp ne i32 %71, 0
  br i1 %72, label %73, label %101

73:                                               ; preds = %69
  %74 = call ptr @__errno_location() #7
  %75 = load i32, ptr %74, align 4
  %76 = icmp ne i32 %75, 2
  br i1 %76, label %77, label %101

77:                                               ; preds = %73
  %78 = call ptr @__errno_location() #7
  %79 = load i32, ptr %78, align 4
  %80 = icmp ne i32 %79, 3
  br i1 %80, label %81, label %101

81:                                               ; preds = %77
  %82 = call ptr @__errno_location() #7
  %83 = load i32, ptr %82, align 4
  %84 = icmp ne i32 %83, 9
  br i1 %84, label %85, label %101

85:                                               ; preds = %81
  %86 = call ptr @__errno_location() #7
  %87 = load i32, ptr %86, align 4
  %88 = icmp ne i32 %87, 1
  br i1 %88, label %89, label %101

89:                                               ; preds = %85
  %90 = call ptr @__errno_location() #7
  %91 = load i32, ptr %90, align 4
  %92 = icmp eq i32 %91, 34
  br i1 %92, label %93, label %96

93:                                               ; preds = %89
  %94 = load i32, ptr %9, align 4
  %95 = add nsw i32 %94, 1024
  store i32 %95, ptr %9, align 4
  store i32 1, ptr %10, align 4
  br label %100

96:                                               ; preds = %89
  %97 = load ptr, ptr %5, align 8
  %98 = call ptr @__errno_location() #7
  %99 = load i32, ptr %98, align 4
  call void @throwUnixException(ptr noundef %97, i32 noundef %99)
  br label %100

100:                                              ; preds = %96, %93
  br label %101

101:                                              ; preds = %100, %85, %81, %77, %73, %69
  br label %106

102:                                              ; preds = %62
  %103 = load ptr, ptr %12, align 8
  %104 = getelementptr inbounds %struct.group, ptr %103, i32 0, i32 2
  %105 = load i32, ptr %104, align 8
  store i32 %105, ptr %8, align 4
  br label %106

106:                                              ; preds = %102, %101
  %107 = load ptr, ptr %14, align 8
  call void @free(ptr noundef %107) #6
  br label %108

108:                                              ; preds = %106
  %109 = load i32, ptr %10, align 4
  %110 = icmp ne i32 %109, 0
  br i1 %110, label %22, label %111, !llvm.loop !38

111:                                              ; preds = %108
  %112 = load i32, ptr %8, align 4
  store i32 %112, ptr %4, align 4
  br label %113

113:                                              ; preds = %111, %30
  %114 = load i32, ptr %4, align 4
  ret i32 %114
}