; Function Attrs: nounwind uwtable
define i32 @Java_sun_nio_fs_UnixNativeDispatcher_getgrnam0(ptr noundef %0, ptr nocapture noundef readnone %1, i64 noundef %2) local_unnamed_addr #0 {
  %4 = alloca %struct.group, align 8
  %5 = alloca ptr, align 8
  %6 = tail call i64 @sysconf(i32 noundef 69) #11
  %7 = and i64 %6, 4294967295
  %8 = icmp eq i64 %7, 4294967295
  %9 = shl i64 %6, 32
  %10 = inttoptr i64 %2 to ptr
  store ptr null, ptr %5, align 8
  %11 = ashr exact i64 %9, 32
  %12 = select i1 %8, i64 1024, i64 %11
  %13 = tail call noalias ptr @malloc(i64 noundef %12) #14
  %14 = icmp eq ptr %13, null
  br i1 %14, label %._crit_edge, label %.lr.ph

.lr.ph:                                           ; preds = %3
  %15 = tail call ptr @__errno_location() #12
  br label %16

._crit_edge:                                      ; preds = %throwUnixException.exit, %3
  call void @JNU_ThrowOutOfMemoryError(ptr noundef %0, ptr noundef nonnull @.str.45) #11
  br label %46

16:                                               ; preds = %.lr.ph, %throwUnixException.exit
  %indvars.iv = phi i64 [ %12, %.lr.ph ], [ %indvars.iv.next, %throwUnixException.exit ]
  %17 = phi ptr [ %13, %.lr.ph ], [ %44, %throwUnixException.exit ]
  store i32 0, ptr %15, align 4
  br label %18

18:                                               ; preds = %21, %16
  %19 = call i32 @getgrnam_r(ptr noundef %10, ptr noundef nonnull %4, ptr noundef nonnull %17, i64 noundef %indvars.iv, ptr noundef nonnull %5) #11
  %20 = icmp eq i32 %19, -1
  br i1 %20, label %21, label %.critedge

21:                                               ; preds = %18
  %22 = load i32, ptr %15, align 4
  %23 = icmp eq i32 %22, 4
  br i1 %23, label %18, label %.critedge.thread, !llvm.loop !53

.critedge:                                        ; preds = %18
  %24 = icmp ne i32 %19, 0
  %25 = load ptr, ptr %5, align 8
  %26 = icmp eq ptr %25, null
  %or.cond = select i1 %24, i1 true, i1 %26
  br i1 %or.cond, label %thread-pre-split, label %27

27:                                               ; preds = %.critedge
  %28 = load ptr, ptr %25, align 8
  %29 = icmp eq ptr %28, null
  br i1 %29, label %thread-pre-split, label %30

30:                                               ; preds = %27
  %31 = load i8, ptr %28, align 1
  %32 = icmp eq i8 %31, 0
  br i1 %32, label %thread-pre-split, label %41

thread-pre-split:                                 ; preds = %.critedge, %27, %30
  %.pr = load i32, ptr %15, align 4
  br label %.critedge.thread

.critedge.thread:                                 ; preds = %21, %thread-pre-split
  %33 = phi i32 [ %.pr, %thread-pre-split ], [ %22, %21 ]
  switch i32 %33, label %34 [
    i32 0, label %throwUnixException.exit.thread
    i32 2, label %throwUnixException.exit.thread
    i32 3, label %throwUnixException.exit.thread
    i32 9, label %throwUnixException.exit.thread
    i32 1, label %throwUnixException.exit.thread
    i32 34, label %throwUnixException.exit
  ]

34:                                               ; preds = %.critedge.thread
  %35 = call ptr (ptr, ptr, ptr, ...) @JNU_NewObjectByName(ptr noundef %0, ptr noundef nonnull @.str.46, ptr noundef nonnull @.str.47, i32 noundef %33) #11
  %.not.i = icmp eq ptr %35, null
  br i1 %.not.i, label %throwUnixException.exit.thread, label %36

36:                                               ; preds = %34
  %37 = load ptr, ptr %0, align 8
  %38 = getelementptr inbounds i8, ptr %37, i64 104
  %39 = load ptr, ptr %38, align 8
  %40 = call i32 %39(ptr noundef nonnull %0, ptr noundef nonnull %35) #11
  br label %throwUnixException.exit.thread

41:                                               ; preds = %30
  %42 = getelementptr inbounds i8, ptr %25, i64 16
  %43 = load i32, ptr %42, align 8
  br label %throwUnixException.exit.thread

throwUnixException.exit.thread:                   ; preds = %.critedge.thread, %.critedge.thread, %.critedge.thread, %.critedge.thread, %.critedge.thread, %41, %34, %36
  %.1.ph = phi i32 [ -1, %36 ], [ -1, %34 ], [ %43, %41 ], [ -1, %.critedge.thread ], [ -1, %.critedge.thread ], [ -1, %.critedge.thread ], [ -1, %.critedge.thread ], [ -1, %.critedge.thread ]
  call void @free(ptr noundef %17) #11
  br label %46

throwUnixException.exit:                          ; preds = %.critedge.thread
  %indvars.iv.next = add nsw i64 %indvars.iv, 1024
  call void @free(ptr noundef %17) #11
  store ptr null, ptr %5, align 8
  %44 = call noalias ptr @malloc(i64 noundef %indvars.iv.next) #14
  %45 = icmp eq ptr %44, null
  br i1 %45, label %._crit_edge, label %16, !llvm.loop !54

46:                                               ; preds = %throwUnixException.exit.thread, %._crit_edge
  %.0 = phi i32 [ -1, %._crit_edge ], [ %.1.ph, %throwUnixException.exit.thread ]
  ret i32 %.0
}